target datalayout = "e-m:e-p270:32:32-p271:32:32-p272:64:64-i64:64-i128:128-f80:128-n8:16:32:64-S128"
target triple = "x86_64-pc-linux-gnu"

@stdout = external global ptr, align 8
@.str.22 = private unnamed_addr constant [83 x i8] c"h5clear clears superblock status flag field, removes metadata cache image, prints\0A\00", align 1
@.str.23 = private unnamed_addr constant [85 x i8] c"EOA and EOF, or sets EOA of a file.  It is not a general repair tool and should not\0A\00", align 1
@.str.24 = private unnamed_addr constant [78 x i8] c"be used to fix file corruption.  If a process doesn't shut down cleanly, the\0A\00", align 1
@.str.25 = private unnamed_addr constant [79 x i8] c"superblock mark can be left that prevents opening a file without SWMR.  Then,\0A\00", align 1
@.str.26 = private unnamed_addr constant [86 x i8] c"h5clear can be used to remove this superblock mark so that the file can be inspected\0A\00", align 1
@.str.27 = private unnamed_addr constant [39 x i8] c"and appropriate actions can be taken.\0A\00", align 1
@.str.28 = private unnamed_addr constant [2 x i8] c"\0A\00", align 1
@.str.29 = private unnamed_addr constant [31 x i8] c"usage: %s [OPTIONS] file_name\0A\00", align 1
@.str.30 = private unnamed_addr constant [11 x i8] c"  OPTIONS\0A\00", align 1
@.str.31 = private unnamed_addr constant [61 x i8] c"   -h, --help                Print a usage message and exit\0A\00", align 1
@.str.32 = private unnamed_addr constant [60 x i8] c"   -V, --version             Print version number and exit\0A\00", align 1
@.str.33 = private unnamed_addr constant [84 x i8] c"   -s, --status              Clear the status_flags field in the file's superblock\0A\00", align 1
@.str.34 = private unnamed_addr constant [76 x i8] c"   -m, --image               Remove the metadata cache image from the file\0A\00", align 1
@.str.35 = private unnamed_addr constant [59 x i8] c"   --filesize                Print the file's EOA and EOF\0A\00", align 1
@.str.36 = private unnamed_addr constant [86 x i8] c"   --increment=C             Set the file's EOA to the maximum of (EOA, EOF) + C for\0A\00", align 1
@.str.37 = private unnamed_addr constant [52 x i8] c"                             the file <file_name>.\0A\00", align 1
@.str.38 = private unnamed_addr constant [92 x i8] c"                             C is >= 0; C is optional and will default to 1M when not set.\0A\00", align 1
@.str.39 = private unnamed_addr constant [94 x i8] c"                             This option helps to repair a crashed SWMR file when the stored\0A\00", align 1
@.str.40 = private unnamed_addr constant [86 x i8] c"                             EOA in the superblock is different from the actual EOF.\0A\00", align 1
@.str.41 = private unnamed_addr constant [85 x i8] c"                             The file's EOA and EOF will be the same after applying\0A\00", align 1
@.str.42 = private unnamed_addr constant [55 x i8] c"                             this option to the file.\0A\00", align 1
@.str.43 = private unnamed_addr constant [18 x i8] c"Examples of use:\0A\00", align 1
@.str.44 = private unnamed_addr constant [22 x i8] c"h5clear -s file_name\0A\00", align 1
@.str.45 = private unnamed_addr constant [80 x i8] c"  Clear the status_flags field in the superblock of the HDF5 file <file_name>.\0A\00", align 1
@.str.46 = private unnamed_addr constant [22 x i8] c"h5clear -m file_name\0A\00", align 1
@.str.47 = private unnamed_addr constant [67 x i8] c"  Remove the metadata cache image from the HDF5 file <file_name>.\0A\00", align 1
@.str.48 = private unnamed_addr constant [31 x i8] c"h5clear --increment file_name\0A\00", align 1
@.str.49 = private unnamed_addr constant [75 x i8] c"  Set the EOA to the maximum of (EOA, EOF) + 1M for the file <file_name>.\0A\00", align 1
@.str.50 = private unnamed_addr constant [35 x i8] c"h5clear --increment=512 file_name\0A\00", align 1
@.str.51 = private unnamed_addr constant [76 x i8] c"  Set the EOA to the maximum of (EOA, EOF) + 512 for the file <file_name>.\0A\00", align 1

; Function Attrs: nounwind uwtable
define internal void @usage(ptr noundef %0) #0 {
  %2 = alloca ptr, align 8
  store ptr %0, ptr %2, align 8, !tbaa !11
  %3 = load ptr, ptr @stdout, align 8, !tbaa !19
  %4 = call i32 (ptr, ptr, ...) @fprintf(ptr noundef %3, ptr noundef @.str.22) #8
  %5 = load ptr, ptr @stdout, align 8, !tbaa !19
  %6 = call i32 (ptr, ptr, ...) @fprintf(ptr noundef %5, ptr noundef @.str.23) #8
  %7 = load ptr, ptr @stdout, align 8, !tbaa !19
  %8 = call i32 (ptr, ptr, ...) @fprintf(ptr noundef %7, ptr noundef @.str.24) #8
  %9 = load ptr, ptr @stdout, align 8, !tbaa !19
  %10 = call i32 (ptr, ptr, ...) @fprintf(ptr noundef %9, ptr noundef @.str.25) #8
  %11 = load ptr, ptr @stdout, align 8, !tbaa !19
  %12 = call i32 (ptr, ptr, ...) @fprintf(ptr noundef %11, ptr noundef @.str.26) #8
  %13 = load ptr, ptr @stdout, align 8, !tbaa !19
  %14 = call i32 (ptr, ptr, ...) @fprintf(ptr noundef %13, ptr noundef @.str.27) #8
  %15 = load ptr, ptr @stdout, align 8, !tbaa !19
  %16 = call i32 (ptr, ptr, ...) @fprintf(ptr noundef %15, ptr noundef @.str.28) #8
  %17 = load ptr, ptr @stdout, align 8, !tbaa !19
  %18 = load ptr, ptr %2, align 8, !tbaa !11
  %19 = call i32 (ptr, ptr, ...) @fprintf(ptr noundef %17, ptr noundef @.str.29, ptr noundef %18) #8
  %20 = load ptr, ptr @stdout, align 8, !tbaa !19
  %21 = call i32 (ptr, ptr, ...) @fprintf(ptr noundef %20, ptr noundef @.str.30) #8
  %22 = load ptr, ptr @stdout, align 8, !tbaa !19
  %23 = call i32 (ptr, ptr, ...) @fprintf(ptr noundef %22, ptr noundef @.str.31) #8
  %24 = load ptr, ptr @stdout, align 8, !tbaa !19
  %25 = call i32 (ptr, ptr, ...) @fprintf(ptr noundef %24, ptr noundef @.str.32) #8
  %26 = load ptr, ptr @stdout, align 8, !tbaa !19
  %27 = call i32 (ptr, ptr, ...) @fprintf(ptr noundef %26, ptr noundef @.str.33) #8
  %28 = load ptr, ptr @stdout, align 8, !tbaa !19
  %29 = call i32 (ptr, ptr, ...) @fprintf(ptr noundef %28, ptr noundef @.str.34) #8
  %30 = load ptr, ptr @stdout, align 8, !tbaa !19
  %31 = call i32 (ptr, ptr, ...) @fprintf(ptr noundef %30, ptr noundef @.str.35) #8
  %32 = load ptr, ptr @stdout, align 8, !tbaa !19
  %33 = call i32 (ptr, ptr, ...) @fprintf(ptr noundef %32, ptr noundef @.str.36) #8
  %34 = load ptr, ptr @stdout, align 8, !tbaa !19
  %35 = call i32 (ptr, ptr, ...) @fprintf(ptr noundef %34, ptr noundef @.str.37) #8
  %36 = load ptr, ptr @stdout, align 8, !tbaa !19
  %37 = call i32 (ptr, ptr, ...) @fprintf(ptr noundef %36, ptr noundef @.str.38) #8
  %38 = load ptr, ptr @stdout, align 8, !tbaa !19
  %39 = call i32 (ptr, ptr, ...) @fprintf(ptr noundef %38, ptr noundef @.str.39) #8
  %40 = load ptr, ptr @stdout, align 8, !tbaa !19
  %41 = call i32 (ptr, ptr, ...) @fprintf(ptr noundef %40, ptr noundef @.str.40) #8
  %42 = load ptr, ptr @stdout, align 8, !tbaa !19
  %43 = call i32 (ptr, ptr, ...) @fprintf(ptr noundef %42, ptr noundef @.str.41) #8
  %44 = load ptr, ptr @stdout, align 8, !tbaa !19
  %45 = call i32 (ptr, ptr, ...) @fprintf(ptr noundef %44, ptr noundef @.str.42) #8
  %46 = load ptr, ptr @stdout, align 8, !tbaa !19
  %47 = call i32 (ptr, ptr, ...) @fprintf(ptr noundef %46, ptr noundef @.str.28) #8
  %48 = load ptr, ptr @stdout, align 8, !tbaa !19
  %49 = call i32 (ptr, ptr, ...) @fprintf(ptr noundef %48, ptr noundef @.str.43) #8
  %50 = load ptr, ptr @stdout, align 8, !tbaa !19
  %51 = call i32 (ptr, ptr, ...) @fprintf(ptr noundef %50, ptr noundef @.str.28) #8
  %52 = load ptr, ptr @stdout, align 8, !tbaa !19
  %53 = call i32 (ptr, ptr, ...) @fprintf(ptr noundef %52, ptr noundef @.str.44) #8
  %54 = load ptr, ptr @stdout, align 8, !tbaa !19
  %55 = call i32 (ptr, ptr, ...) @fprintf(ptr noundef %54, ptr noundef @.str.45) #8
  %56 = load ptr, ptr @stdout, align 8, !tbaa !19
  %57 = call i32 (ptr, ptr, ...) @fprintf(ptr noundef %56, ptr noundef @.str.28) #8
  %58 = load ptr, ptr @stdout, align 8, !tbaa !19
  %59 = call i32 (ptr, ptr, ...) @fprintf(ptr noundef %58, ptr noundef @.str.46) #8
  %60 = load ptr, ptr @stdout, align 8, !tbaa !19
  %61 = call i32 (ptr, ptr, ...) @fprintf(ptr noundef %60, ptr noundef @.str.47) #8
  %62 = load ptr, ptr @stdout, align 8, !tbaa !19
  %63 = call i32 (ptr, ptr, ...) @fprintf(ptr noundef %62, ptr noundef @.str.28) #8
  %64 = load ptr, ptr @stdout, align 8, !tbaa !19
  %65 = call i32 (ptr, ptr, ...) @fprintf(ptr noundef %64, ptr noundef @.str.48) #8
  %66 = load ptr, ptr @stdout, align 8, !tbaa !19
  %67 = call i32 (ptr, ptr, ...) @fprintf(ptr noundef %66, ptr noundef @.str.49) #8
  %68 = load ptr, ptr @stdout, align 8, !tbaa !19
  %69 = call i32 (ptr, ptr, ...) @fprintf(ptr noundef %68, ptr noundef @.str.28) #8
  %70 = load ptr, ptr @stdout, align 8, !tbaa !19
  %71 = call i32 (ptr, ptr, ...) @fprintf(ptr noundef %70, ptr noundef @.str.50) #8
  %72 = load ptr, ptr @stdout, align 8, !tbaa !19
  %73 = call i32 (ptr, ptr, ...) @fprintf(ptr noundef %72, ptr noundef @.str.51) #8
  ret void
}