; Function Attrs: nofree nounwind uwtable
define internal fastcc void @usage(ptr noundef %0) unnamed_addr #3 {
  %2 = load ptr, ptr @stdout, align 8, !tbaa !20
  %3 = tail call i64 @fwrite(ptr nonnull @.str.22, i64 82, i64 1, ptr %2)
  %4 = load ptr, ptr @stdout, align 8, !tbaa !20
  %5 = tail call i64 @fwrite(ptr nonnull @.str.23, i64 84, i64 1, ptr %4)
  %6 = load ptr, ptr @stdout, align 8, !tbaa !20
  %7 = tail call i64 @fwrite(ptr nonnull @.str.24, i64 77, i64 1, ptr %6)
  %8 = load ptr, ptr @stdout, align 8, !tbaa !20
  %9 = tail call i64 @fwrite(ptr nonnull @.str.25, i64 78, i64 1, ptr %8)
  %10 = load ptr, ptr @stdout, align 8, !tbaa !20
  %11 = tail call i64 @fwrite(ptr nonnull @.str.26, i64 85, i64 1, ptr %10)
  %12 = load ptr, ptr @stdout, align 8, !tbaa !20
  %13 = tail call i64 @fwrite(ptr nonnull @.str.27, i64 38, i64 1, ptr %12)
  %14 = load ptr, ptr @stdout, align 8, !tbaa !20
  %fputc = tail call i32 @fputc(i32 10, ptr %14)
  %15 = load ptr, ptr @stdout, align 8, !tbaa !20
  %16 = tail call i32 (ptr, ptr, ...) @fprintf(ptr noundef %15, ptr noundef nonnull @.str.29, ptr noundef %0) #11
  %17 = load ptr, ptr @stdout, align 8, !tbaa !20
  %18 = tail call i64 @fwrite(ptr nonnull @.str.30, i64 10, i64 1, ptr %17)
  %19 = load ptr, ptr @stdout, align 8, !tbaa !20
  %20 = tail call i64 @fwrite(ptr nonnull @.str.31, i64 60, i64 1, ptr %19)
  %21 = load ptr, ptr @stdout, align 8, !tbaa !20
  %22 = tail call i64 @fwrite(ptr nonnull @.str.32, i64 59, i64 1, ptr %21)
  %23 = load ptr, ptr @stdout, align 8, !tbaa !20
  %24 = tail call i64 @fwrite(ptr nonnull @.str.33, i64 83, i64 1, ptr %23)
  %25 = load ptr, ptr @stdout, align 8, !tbaa !20
  %26 = tail call i64 @fwrite(ptr nonnull @.str.34, i64 75, i64 1, ptr %25)
  %27 = load ptr, ptr @stdout, align 8, !tbaa !20
  %28 = tail call i64 @fwrite(ptr nonnull @.str.35, i64 58, i64 1, ptr %27)
  %29 = load ptr, ptr @stdout, align 8, !tbaa !20
  %30 = tail call i64 @fwrite(ptr nonnull @.str.36, i64 85, i64 1, ptr %29)
  %31 = load ptr, ptr @stdout, align 8, !tbaa !20
  %32 = tail call i64 @fwrite(ptr nonnull @.str.37, i64 51, i64 1, ptr %31)
  %33 = load ptr, ptr @stdout, align 8, !tbaa !20
  %34 = tail call i64 @fwrite(ptr nonnull @.str.38, i64 91, i64 1, ptr %33)
  %35 = load ptr, ptr @stdout, align 8, !tbaa !20
  %36 = tail call i64 @fwrite(ptr nonnull @.str.39, i64 93, i64 1, ptr %35)
  %37 = load ptr, ptr @stdout, align 8, !tbaa !20
  %38 = tail call i64 @fwrite(ptr nonnull @.str.40, i64 85, i64 1, ptr %37)
  %39 = load ptr, ptr @stdout, align 8, !tbaa !20
  %40 = tail call i64 @fwrite(ptr nonnull @.str.41, i64 84, i64 1, ptr %39)
  %41 = load ptr, ptr @stdout, align 8, !tbaa !20
  %42 = tail call i64 @fwrite(ptr nonnull @.str.42, i64 54, i64 1, ptr %41)
  %43 = load ptr, ptr @stdout, align 8, !tbaa !20
  %fputc1 = tail call i32 @fputc(i32 10, ptr %43)
  %44 = load ptr, ptr @stdout, align 8, !tbaa !20
  %45 = tail call i64 @fwrite(ptr nonnull @.str.43, i64 17, i64 1, ptr %44)
  %46 = load ptr, ptr @stdout, align 8, !tbaa !20
  %fputc2 = tail call i32 @fputc(i32 10, ptr %46)
  %47 = load ptr, ptr @stdout, align 8, !tbaa !20
  %48 = tail call i64 @fwrite(ptr nonnull @.str.44, i64 21, i64 1, ptr %47)
  %49 = load ptr, ptr @stdout, align 8, !tbaa !20
  %50 = tail call i64 @fwrite(ptr nonnull @.str.45, i64 79, i64 1, ptr %49)
  %51 = load ptr, ptr @stdout, align 8, !tbaa !20
  %fputc3 = tail call i32 @fputc(i32 10, ptr %51)
  %52 = load ptr, ptr @stdout, align 8, !tbaa !20
  %53 = tail call i64 @fwrite(ptr nonnull @.str.46, i64 21, i64 1, ptr %52)
  %54 = load ptr, ptr @stdout, align 8, !tbaa !20
  %55 = tail call i64 @fwrite(ptr nonnull @.str.47, i64 66, i64 1, ptr %54)
  %56 = load ptr, ptr @stdout, align 8, !tbaa !20
  %fputc4 = tail call i32 @fputc(i32 10, ptr %56)
  %57 = load ptr, ptr @stdout, align 8, !tbaa !20
  %58 = tail call i64 @fwrite(ptr nonnull @.str.48, i64 30, i64 1, ptr %57)
  %59 = load ptr, ptr @stdout, align 8, !tbaa !20
  %60 = tail call i64 @fwrite(ptr nonnull @.str.49, i64 74, i64 1, ptr %59)
  %61 = load ptr, ptr @stdout, align 8, !tbaa !20
  %fputc5 = tail call i32 @fputc(i32 10, ptr %61)
  %62 = load ptr, ptr @stdout, align 8, !tbaa !20
  %63 = tail call i64 @fwrite(ptr nonnull @.str.50, i64 34, i64 1, ptr %62)
  %64 = load ptr, ptr @stdout, align 8, !tbaa !20
  %65 = tail call i64 @fwrite(ptr nonnull @.str.51, i64 75, i64 1, ptr %64)
  ret void
}